target datalayout = "e-m:e-p270:32:32-p271:32:32-p272:64:64-i64:64-i128:128-f80:128-n8:16:32:64-S128"
target triple = "x86_64-pc-linux-gnu"

%struct._address = type { i32, i32, ptr, ptr }
%struct._packet_info = type { ptr, ptr, i32, i32, %struct.nstime_t, %struct.nstime_t, %struct.nstime_t, i8, ptr, ptr, ptr, ptr, %struct._address, %struct._address, %struct._address, %struct._address, %struct._address, %struct._address, i32, ptr, i8, [3 x i8], %struct.anon, i32, i32, i32, i32, ptr, i8, ptr, ptr, i16, i16, i32, i32, i16, i32, i32, ptr, ptr, ptr, i8, i8, i16, i16, i16, i32, i16, i16, ptr, ptr, ptr, ptr, ptr, i32, i32 }
%struct.nstime_t = type { i64, i32 }
%struct.anon = type { i8, [3 x i8] }
%struct.z_stream_s = type { ptr, i32, i64, ptr, i32, i64, ptr, ptr, ptr, ptr, ptr, i32, i64, i64 }
%struct.websocket_packet_t = type { ptr, i32 }

@proto_websocket = internal global i32 0, align 4

; Function Attrs: alwaysinline nounwind
define internal ptr @memcpy.inline(ptr noalias %0, ptr noalias %1, i64 %2) #7 {
  %4 = alloca ptr, align 8
  %5 = alloca ptr, align 8
  %6 = alloca i64, align 8
  store ptr %0, ptr %4, align 8
  store ptr %1, ptr %5, align 8
  store i64 %2, ptr %6, align 8
  %7 = load ptr, ptr %4, align 8
  %8 = load ptr, ptr %5, align 8
  %9 = load i64, ptr %6, align 8
  %10 = load ptr, ptr %4, align 8
  %11 = call i64 @llvm.objectsize.i64.p0(ptr %10, i1 false, i1 true, i1 true)
  %12 = call ptr @__memcpy_chk(ptr noundef %7, ptr noundef %8, i64 noundef %9, i64 noundef %11) #10
  ret ptr %12
}

; Function Attrs: null_pointer_is_valid sspstrong uwtable
define internal zeroext i1 @websocket_uncompress(ptr noundef %0, ptr noundef %1, ptr noundef %2, ptr noundef %3, i32 noundef %4) #0 {
  %6 = alloca i1, align 1
  %7 = alloca ptr, align 8
  %8 = alloca ptr, align 8
  %9 = alloca ptr, align 8
  %10 = alloca ptr, align 8
  %11 = alloca i32, align 4
  %12 = alloca ptr, align 8
  %13 = alloca i32, align 4
  %14 = alloca i32, align 4
  %15 = alloca i32, align 4
  %16 = alloca ptr, align 8
  %17 = alloca ptr, align 8
  %18 = alloca i32, align 4
  %19 = alloca i32, align 4
  %20 = alloca ptr, align 8
  %21 = alloca i32, align 4
  store ptr %0, ptr %7, align 8
  store ptr %1, ptr %8, align 8
  store ptr %2, ptr %9, align 8
  store ptr %3, ptr %10, align 8
  store i32 %4, ptr %11, align 4
  call void @llvm.lifetime.start.p0(i64 8, ptr %12) #10
  store ptr null, ptr %12, align 8
  call void @llvm.lifetime.start.p0(i64 4, ptr %13) #10
  store i32 0, ptr %13, align 4
  call void @llvm.lifetime.start.p0(i64 4, ptr %14) #10
  call void @llvm.lifetime.start.p0(i64 4, ptr %15) #10
  call void @llvm.lifetime.start.p0(i64 8, ptr %16) #10
  call void @llvm.lifetime.start.p0(i64 8, ptr %17) #10
  call void @llvm.lifetime.start.p0(i64 4, ptr %18) #10
  %22 = load ptr, ptr %7, align 8
  %23 = call i32 @tvb_captured_length(ptr noundef %22)
  %24 = add i32 %23, 4
  store i32 %24, ptr %14, align 4
  %25 = load ptr, ptr %8, align 8
  %26 = getelementptr inbounds nuw %struct._packet_info, ptr %25, i32 0, i32 51
  %27 = load ptr, ptr %26, align 8
  %28 = load i32, ptr %14, align 4
  %29 = zext i32 %28 to i64
  %30 = call noalias ptr @wmem_alloc(ptr noundef %27, i64 noundef %29) #11
  store ptr %30, ptr %16, align 8
  %31 = load ptr, ptr %7, align 8
  %32 = load ptr, ptr %16, align 8
  %33 = load i32, ptr %14, align 4
  %34 = sub i32 %33, 4
  %35 = zext i32 %34 to i64
  %36 = call ptr @tvb_memcpy(ptr noundef %31, ptr noundef %32, i32 noundef 0, i64 noundef %35)
  %37 = load ptr, ptr %16, align 8
  %38 = load i32, ptr %14, align 4
  %39 = sub i32 %38, 3
  %40 = zext i32 %39 to i64
  %41 = getelementptr i8, ptr %37, i64 %40
  store i8 0, ptr %41, align 1
  %42 = load ptr, ptr %16, align 8
  %43 = load i32, ptr %14, align 4
  %44 = sub i32 %43, 4
  %45 = zext i32 %44 to i64
  %46 = getelementptr i8, ptr %42, i64 %45
  store i8 0, ptr %46, align 1
  %47 = load ptr, ptr %16, align 8
  %48 = load i32, ptr %14, align 4
  %49 = sub i32 %48, 1
  %50 = zext i32 %49 to i64
  %51 = getelementptr i8, ptr %47, i64 %50
  store i8 -1, ptr %51, align 1
  %52 = load ptr, ptr %16, align 8
  %53 = load i32, ptr %14, align 4
  %54 = sub i32 %53, 2
  %55 = zext i32 %54 to i64
  %56 = getelementptr i8, ptr %52, i64 %55
  store i8 -1, ptr %56, align 1
  %57 = load i32, ptr %14, align 4
  %58 = mul i32 2, %57
  store i32 %58, ptr %15, align 4
  %59 = load ptr, ptr %8, align 8
  %60 = getelementptr inbounds nuw %struct._packet_info, ptr %59, i32 0, i32 51
  %61 = load ptr, ptr %60, align 8
  %62 = load i32, ptr %15, align 4
  %63 = zext i32 %62 to i64
  %64 = call noalias ptr @wmem_alloc(ptr noundef %61, i64 noundef %63) #11
  store ptr %64, ptr %17, align 8
  %65 = load ptr, ptr %16, align 8
  %66 = load ptr, ptr %9, align 8
  %67 = getelementptr inbounds nuw %struct.z_stream_s, ptr %66, i32 0, i32 0
  store ptr %65, ptr %67, align 8
  %68 = load i32, ptr %14, align 4
  %69 = load ptr, ptr %9, align 8
  %70 = getelementptr inbounds nuw %struct.z_stream_s, ptr %69, i32 0, i32 1
  store i32 %68, ptr %70, align 8
  br label %71

71:                                               ; preds = %117, %5
  %72 = load ptr, ptr %17, align 8
  %73 = load ptr, ptr %9, align 8
  %74 = getelementptr inbounds nuw %struct.z_stream_s, ptr %73, i32 0, i32 3
  store ptr %72, ptr %74, align 8
  %75 = load i32, ptr %15, align 4
  %76 = load ptr, ptr %9, align 8
  %77 = getelementptr inbounds nuw %struct.z_stream_s, ptr %76, i32 0, i32 4
  store i32 %75, ptr %77, align 8
  %78 = load ptr, ptr %9, align 8
  %79 = call i32 @inflate(ptr noundef %78, i32 noundef 2)
  store i32 %79, ptr %18, align 4
  %80 = load i32, ptr %18, align 4
  %81 = icmp eq i32 %80, 0
  br i1 %81, label %88, label %82

82:                                               ; preds = %71
  %83 = load i32, ptr %18, align 4
  %84 = icmp eq i32 %83, 1
  br i1 %84, label %88, label %85

85:                                               ; preds = %82
  %86 = load i32, ptr %18, align 4
  %87 = icmp eq i32 %86, -5
  br i1 %87, label %88, label %116

88:                                               ; preds = %85, %82, %71
  call void @llvm.lifetime.start.p0(i64 4, ptr %19) #10
  %89 = load i32, ptr %15, align 4
  %90 = load ptr, ptr %9, align 8
  %91 = getelementptr inbounds nuw %struct.z_stream_s, ptr %90, i32 0, i32 4
  %92 = load i32, ptr %91, align 8
  %93 = sub i32 %89, %92
  store i32 %93, ptr %19, align 4
  %94 = load i32, ptr %19, align 4
  %95 = icmp ne i32 %94, 0
  br i1 %95, label %96, label %115

96:                                               ; preds = %88
  %97 = call ptr @wmem_file_scope()
  %98 = load ptr, ptr %12, align 8
  %99 = load i32, ptr %13, align 4
  %100 = load i32, ptr %19, align 4
  %101 = add i32 %99, %100
  %102 = zext i32 %101 to i64
  %103 = call ptr @wmem_realloc(ptr noundef %97, ptr noundef %98, i64 noundef %102) #14
  store ptr %103, ptr %12, align 8
  %104 = load ptr, ptr %12, align 8
  %105 = load i32, ptr %13, align 4
  %106 = zext i32 %105 to i64
  %107 = getelementptr i8, ptr %104, i64 %106
  %108 = load ptr, ptr %17, align 8
  %109 = load i32, ptr %19, align 4
  %110 = zext i32 %109 to i64
  %111 = call ptr @memcpy.inline(ptr noundef %107, ptr noundef %108, i64 noundef %110) #10
  %112 = load i32, ptr %19, align 4
  %113 = load i32, ptr %13, align 4
  %114 = add i32 %113, %112
  store i32 %114, ptr %13, align 4
  br label %115

115:                                              ; preds = %96, %88
  call void @llvm.lifetime.end.p0(i64 4, ptr %19) #10
  br label %116

116:                                              ; preds = %115, %85
  br label %117

117:                                              ; preds = %116
  %118 = load i32, ptr %18, align 4
  %119 = icmp eq i32 %118, 0
  br i1 %119, label %71, label %120, !llvm.loop !10

120:                                              ; preds = %117
  %121 = load i32, ptr %18, align 4
  %122 = icmp eq i32 %121, 1
  br i1 %122, label %126, label %123

123:                                              ; preds = %120
  %124 = load i32, ptr %18, align 4
  %125 = icmp eq i32 %124, -5
  br i1 %125, label %126, label %150

126:                                              ; preds = %123, %120
  call void @llvm.lifetime.start.p0(i64 8, ptr %20) #10
  %127 = call ptr @wmem_file_scope()
  %128 = call noalias ptr @wmem_alloc0(ptr noundef %127, i64 noundef 16) #11
  store ptr %128, ptr %20, align 8
  %129 = load i32, ptr %13, align 4
  %130 = icmp ugt i32 %129, 0
  br i1 %130, label %131, label %144

131:                                              ; preds = %126
  %132 = load ptr, ptr %12, align 8
  %133 = load ptr, ptr %20, align 8
  %134 = getelementptr inbounds nuw %struct.websocket_packet_t, ptr %133, i32 0, i32 0
  store ptr %132, ptr %134, align 8
  %135 = load i32, ptr %13, align 4
  %136 = load ptr, ptr %20, align 8
  %137 = getelementptr inbounds nuw %struct.websocket_packet_t, ptr %136, i32 0, i32 1
  store i32 %135, ptr %137, align 8
  %138 = load ptr, ptr %7, align 8
  %139 = load ptr, ptr %12, align 8
  %140 = load i32, ptr %13, align 4
  %141 = load i32, ptr %13, align 4
  %142 = call ptr @tvb_new_child_real_data(ptr noundef %138, ptr noundef %139, i32 noundef %140, i32 noundef %141)
  %143 = load ptr, ptr %10, align 8
  store ptr %142, ptr %143, align 8
  br label %144

144:                                              ; preds = %131, %126
  %145 = call ptr @wmem_file_scope()
  %146 = load ptr, ptr %8, align 8
  %147 = load i32, ptr @proto_websocket, align 4
  %148 = load i32, ptr %11, align 4
  %149 = load ptr, ptr %20, align 8
  call void @p_add_proto_data(ptr noundef %145, ptr noundef %146, i32 noundef %147, i32 noundef %148, ptr noundef %149)
  store i1 true, ptr %6, align 1
  store i32 1, ptr %21, align 4
  call void @llvm.lifetime.end.p0(i64 8, ptr %20) #10
  br label %153

150:                                              ; preds = %123
  %151 = call ptr @wmem_file_scope()
  %152 = load ptr, ptr %12, align 8
  call void @wmem_free(ptr noundef %151, ptr noundef %152)
  store i1 false, ptr %6, align 1
  store i32 1, ptr %21, align 4
  br label %153

153:                                              ; preds = %150, %144
  call void @llvm.lifetime.end.p0(i64 4, ptr %18) #10
  call void @llvm.lifetime.end.p0(i64 8, ptr %17) #10
  call void @llvm.lifetime.end.p0(i64 8, ptr %16) #10
  call void @llvm.lifetime.end.p0(i64 4, ptr %15) #10
  call void @llvm.lifetime.end.p0(i64 4, ptr %14) #10
  call void @llvm.lifetime.end.p0(i64 4, ptr %13) #10
  call void @llvm.lifetime.end.p0(i64 8, ptr %12) #10
  %154 = load i1, ptr %6, align 1
  ret i1 %154
}