; Function Attrs: null_pointer_is_valid sspstrong uwtable
define internal fastcc noundef zeroext i1 @websocket_uncompress(ptr noundef %0, ptr noundef %1, ptr noundef initializes((0, 12), (24, 36)) %2, ptr noundef writeonly captures(none) %3, i32 noundef %4) unnamed_addr #0 {
  %6 = tail call i32 @tvb_captured_length(ptr noundef %0)
  %7 = add i32 %6, 4
  %8 = getelementptr inbounds nuw i8, ptr %1, i64 408
  %9 = load ptr, ptr %8, align 8
  %10 = zext i32 %7 to i64
  %11 = tail call noalias ptr @wmem_alloc(ptr noundef %9, i64 noundef %10) #11
  %12 = zext i32 %6 to i64
  %13 = tail call ptr @tvb_memcpy(ptr noundef %0, ptr noundef %11, i32 noundef 0, i64 noundef %12)
  %14 = add i32 %6, 1
  %15 = zext i32 %14 to i64
  %16 = getelementptr i8, ptr %11, i64 %15
  store i8 0, ptr %16, align 1
  %17 = getelementptr i8, ptr %11, i64 %12
  store i8 0, ptr %17, align 1
  %18 = add i32 %6, 3
  %19 = zext i32 %18 to i64
  %20 = getelementptr i8, ptr %11, i64 %19
  store i8 -1, ptr %20, align 1
  %21 = add i32 %6, 2
  %22 = zext i32 %21 to i64
  %23 = getelementptr i8, ptr %11, i64 %22
  store i8 -1, ptr %23, align 1
  %24 = shl i32 %7, 1
  %25 = load ptr, ptr %8, align 8
  %26 = zext i32 %24 to i64
  %27 = tail call noalias ptr @wmem_alloc(ptr noundef %25, i64 noundef %26) #11
  store ptr %11, ptr %2, align 8
  %28 = getelementptr inbounds nuw i8, ptr %2, i64 8
  store i32 %7, ptr %28, align 8
  %29 = getelementptr inbounds nuw i8, ptr %2, i64 24
  %30 = getelementptr inbounds nuw i8, ptr %2, i64 32
  br label %31

31:                                               ; preds = %50, %5
  %.064 = phi i32 [ 0, %5 ], [ %.266, %50 ]
  %.063 = phi ptr [ null, %5 ], [ %.2, %50 ]
  store ptr %27, ptr %29, align 8
  store i32 %24, ptr %30, align 8
  %32 = tail call i32 @inflate(ptr noundef %2, i32 noundef 2)
  %33 = icmp eq i32 %32, 0
  switch i32 %32, label %.thread [
    i32 -5, label %34
    i32 1, label %34
    i32 0, label %34
  ]

34:                                               ; preds = %31, %31, %31
  %35 = load i32, ptr %30, align 8
  %.not = icmp eq i32 %24, %35
  br i1 %.not, label %50, label %36

36:                                               ; preds = %34
  %37 = sub i32 %24, %35
  %38 = tail call ptr @wmem_file_scope()
  %39 = add i32 %37, %.064
  %40 = zext i32 %39 to i64
  %41 = tail call ptr @wmem_realloc(ptr noundef %38, ptr noundef %.063, i64 noundef %40) #14
  %42 = zext i32 %.064 to i64
  %43 = getelementptr i8, ptr %41, i64 %42
  %44 = zext i32 %37 to i64
  %45 = sub nsw i64 %40, %42
  %46 = icmp ugt i32 %.064, %39
  %47 = select i1 %46, i64 0, i64 %45
  %48 = icmp ne i64 %47, -1
  tail call void @llvm.assume(i1 %48)
  %49 = tail call ptr @__memcpy_chk(ptr noundef %43, ptr noundef %27, i64 noundef range(i64 1, 4294967296) %44, i64 noundef %47) #10, !alias.scope !10
  br label %50

50:                                               ; preds = %34, %36
  %.266 = phi i32 [ %39, %36 ], [ %.064, %34 ]
  %.2 = phi ptr [ %41, %36 ], [ %.063, %34 ]
  br i1 %33, label %31, label %.thread, !llvm.loop !14

.thread:                                          ; preds = %31, %50
  %.272 = phi ptr [ %.2, %50 ], [ %.063, %31 ]
  %.26671 = phi i32 [ %.266, %50 ], [ %.064, %31 ]
  switch i32 %32, label %60 [
    i32 -5, label %51
    i32 1, label %51
  ]

51:                                               ; preds = %.thread, %.thread
  %52 = tail call ptr @wmem_file_scope()
  %53 = tail call noalias dereferenceable_or_null(16) ptr @wmem_alloc0(ptr noundef %52, i64 noundef 16) #11
  %.not68 = icmp eq i32 %.26671, 0
  br i1 %.not68, label %57, label %54

54:                                               ; preds = %51
  store ptr %.272, ptr %53, align 8
  %55 = getelementptr inbounds nuw i8, ptr %53, i64 8
  store i32 %.26671, ptr %55, align 8
  %56 = tail call ptr @tvb_new_child_real_data(ptr noundef %0, ptr noundef %.272, i32 noundef %.26671, i32 noundef %.26671)
  store ptr %56, ptr %3, align 8
  br label %57

57:                                               ; preds = %54, %51
  %58 = tail call ptr @wmem_file_scope()
  %59 = load i32, ptr @proto_websocket, align 4
  tail call void @p_add_proto_data(ptr noundef %58, ptr noundef %1, i32 noundef %59, i32 noundef %4, ptr noundef %53)
  br label %62

60:                                               ; preds = %.thread
  %61 = tail call ptr @wmem_file_scope()
  tail call void @wmem_free(ptr noundef %61, ptr noundef %.272)
  br label %62

62:                                               ; preds = %60, %57
  %63 = icmp eq i32 %32, 1
  %64 = icmp eq i32 %32, -5
  %or.cond5 = or i1 %63, %64
  ret i1 %or.cond5
}